; Function Attrs: mustprogress nofree norecurse nosync nounwind memory(readwrite, inaccessiblemem: none) uwtable
define internal void @_ZL14evaluate_chainRKN3gmx20SelMethodEvalContextEP15gmx_ana_index_tP18gmx_ana_selvalue_tPv(ptr noundef nonnull readonly align 8 captures(none) dereferenceable(24) %0, ptr noundef readonly captures(none) %1, ptr noundef captures(none) initializes((4, 8)) %2, ptr readnone captures(none) %3) #3 {
  %5 = load i32, ptr %1, align 8, !tbaa !7
  %6 = getelementptr inbounds nuw i8, ptr %2, i64 4
  store i32 %5, ptr %6, align 4, !tbaa !12
  %7 = icmp sgt i32 %5, 0
  br i1 %7, label %.lr.ph, label %._crit_edge

.lr.ph:                                           ; preds = %4
  %8 = getelementptr inbounds nuw i8, ptr %1, i64 8
  %9 = getelementptr inbounds nuw i8, ptr %2, i64 8
  br label %10

._crit_edge:                                      ; preds = %_ZL18mtopGetResidueInfoRK10gmx_mtop_tiPi.exit, %4
  ret void

10:                                               ; preds = %.lr.ph, %_ZL18mtopGetResidueInfoRK10gmx_mtop_tiPi.exit
  %indvars.iv = phi i64 [ 0, %.lr.ph ], [ %indvars.iv.next, %_ZL18mtopGetResidueInfoRK10gmx_mtop_tiPi.exit ]
  %.0911 = phi i32 [ 0, %.lr.ph ], [ %.1, %_ZL18mtopGetResidueInfoRK10gmx_mtop_tiPi.exit ]
  %11 = load ptr, ptr %0, align 8, !tbaa !19
  %12 = load ptr, ptr %8, align 8, !tbaa !15
  %13 = getelementptr inbounds nuw i32, ptr %12, i64 %indvars.iv
  %14 = load i32, ptr %13, align 4, !tbaa !16
  %15 = getelementptr inbounds nuw i8, ptr %11, i64 136
  %16 = getelementptr inbounds nuw i8, ptr %11, i64 144
  %17 = load ptr, ptr %16, align 8, !tbaa !24
  %18 = load ptr, ptr %15, align 8, !tbaa !27
  %19 = ptrtoint ptr %17 to i64
  %20 = ptrtoint ptr %18 to i64
  %21 = sub i64 %19, %20
  %22 = sdiv exact i64 %21, 56
  %23 = trunc i64 %22 to i32
  %24 = getelementptr inbounds nuw i8, ptr %11, i64 736
  %25 = load ptr, ptr %24, align 8, !tbaa !28
  br label %26

26:                                               ; preds = %35, %10
  %.1 = phi i32 [ %.0911, %10 ], [ %38, %35 ]
  %.026.i.i = phi i32 [ %23, %10 ], [ %.127.i.i, %35 ]
  %.0.i.i = phi i32 [ -1, %10 ], [ %.1.i.i, %35 ]
  %27 = sext i32 %.1 to i64
  %28 = getelementptr inbounds nuw %struct.MoleculeBlockIndices, ptr %25, i64 %27
  %29 = getelementptr inbounds nuw i8, ptr %28, i64 4
  %30 = load i32, ptr %29, align 4, !tbaa !34
  %.fr10.i = freeze i32 %30
  %31 = icmp slt i32 %14, %.fr10.i
  br i1 %31, label %35, label %32

32:                                               ; preds = %26
  %33 = getelementptr inbounds nuw i8, ptr %28, i64 8
  %34 = load i32, ptr %33, align 4, !tbaa !36
  %.not.i.i = icmp slt i32 %14, %34
  br i1 %.not.i.i, label %_ZL18mtopGetResidueInfoRK10gmx_mtop_tiPi.exit, label %35

35:                                               ; preds = %32, %26
  %.127.i.i = phi i32 [ %.1, %26 ], [ %.026.i.i, %32 ]
  %.1.i.i = phi i32 [ %.0.i.i, %26 ], [ %.1, %32 ]
  %36 = add i32 %.127.i.i, 1
  %37 = add i32 %36, %.1.i.i
  %38 = ashr i32 %37, 1
  br label %26, !llvm.loop !37

_ZL18mtopGetResidueInfoRK10gmx_mtop_tiPi.exit:    ; preds = %32
  %39 = sub i32 %14, %.fr10.i
  %40 = load i32, ptr %28, align 4, !tbaa !38
  %41 = srem i32 %39, %40
  %42 = getelementptr inbounds nuw i8, ptr %11, i64 112
  %43 = getelementptr inbounds nuw %struct.gmx_molblock_t, ptr %18, i64 %27
  %44 = load i32, ptr %43, align 8, !tbaa !39
  %45 = sext i32 %44 to i64
  %46 = load ptr, ptr %42, align 8, !tbaa !31
  %47 = getelementptr inbounds nuw %struct.gmx_moltype_t, ptr %46, i64 %45
  %48 = getelementptr inbounds nuw i8, ptr %47, i64 16
  %49 = load ptr, ptr %48, align 8, !tbaa !164
  %50 = sext i32 %41 to i64
  %51 = getelementptr inbounds %struct.t_atom, ptr %49, i64 %50, i32 7
  %52 = load i32, ptr %51, align 4, !tbaa !103
  %53 = getelementptr inbounds nuw i8, ptr %47, i64 56
  %54 = load ptr, ptr %53, align 8, !tbaa !165
  %55 = sext i32 %52 to i64
  %56 = getelementptr inbounds %struct.t_resinfo, ptr %54, i64 %55, i32 4
  %57 = load i8, ptr %56, align 4, !tbaa !170
  %58 = load ptr, ptr %9, align 8, !tbaa !4
  %59 = getelementptr inbounds nuw ptr, ptr %58, i64 %indvars.iv
  %60 = load ptr, ptr %59, align 8, !tbaa !118
  store i8 %57, ptr %60, align 1, !tbaa !4
  %indvars.iv.next = add nuw nsw i64 %indvars.iv, 1
  %61 = load i32, ptr %1, align 8, !tbaa !7
  %62 = sext i32 %61 to i64
  %63 = icmp slt i64 %indvars.iv.next, %62
  br i1 %63, label %10, label %._crit_edge, !llvm.loop !171
}